target datalayout = "e-m:e-p270:32:32-p271:32:32-p272:64:64-i64:64-i128:128-f80:128-n8:16:32:64-S128"
target triple = "x86_64-pc-linux-gnu"

; Function Attrs: nounwind uwtable
define internal void @extract_even2_c(ptr noundef %0, ptr noundef %1, ptr noundef %2, i32 noundef %3) #0 {
  %5 = alloca ptr, align 8
  %6 = alloca ptr, align 8
  %7 = alloca ptr, align 8
  %8 = alloca i32, align 4
  store ptr %0, ptr %5, align 8, !tbaa !4
  store ptr %1, ptr %6, align 8, !tbaa !4
  store ptr %2, ptr %7, align 8, !tbaa !4
  store i32 %3, ptr %8, align 4, !tbaa !9
  %9 = load i32, ptr %8, align 4, !tbaa !9
  %10 = load ptr, ptr %6, align 8, !tbaa !4
  %11 = sext i32 %9 to i64
  %12 = getelementptr inbounds i8, ptr %10, i64 %11
  store ptr %12, ptr %6, align 8, !tbaa !4
  %13 = load i32, ptr %8, align 4, !tbaa !9
  %14 = load ptr, ptr %7, align 8, !tbaa !4
  %15 = sext i32 %13 to i64
  %16 = getelementptr inbounds i8, ptr %14, i64 %15
  store ptr %16, ptr %7, align 8, !tbaa !4
  %17 = load i32, ptr %8, align 4, !tbaa !9
  %18 = mul nsw i32 %17, 4
  %19 = load ptr, ptr %5, align 8, !tbaa !4
  %20 = sext i32 %18 to i64
  %21 = getelementptr inbounds i8, ptr %19, i64 %20
  store ptr %21, ptr %5, align 8, !tbaa !4
  %22 = load i32, ptr %8, align 4, !tbaa !9
  %23 = sub nsw i32 0, %22
  store i32 %23, ptr %8, align 4, !tbaa !9
  br label %24

24:                                               ; preds = %27, %4
  %25 = load i32, ptr %8, align 4, !tbaa !9
  %26 = icmp slt i32 %25, 0
  br i1 %26, label %27, label %52

27:                                               ; preds = %24
  %28 = load ptr, ptr %5, align 8, !tbaa !4
  %29 = load i32, ptr %8, align 4, !tbaa !9
  %30 = mul nsw i32 4, %29
  %31 = add nsw i32 %30, 0
  %32 = sext i32 %31 to i64
  %33 = getelementptr inbounds i8, ptr %28, i64 %32
  %34 = load i8, ptr %33, align 1, !tbaa !13
  %35 = load ptr, ptr %6, align 8, !tbaa !4
  %36 = load i32, ptr %8, align 4, !tbaa !9
  %37 = sext i32 %36 to i64
  %38 = getelementptr inbounds i8, ptr %35, i64 %37
  store i8 %34, ptr %38, align 1, !tbaa !13
  %39 = load ptr, ptr %5, align 8, !tbaa !4
  %40 = load i32, ptr %8, align 4, !tbaa !9
  %41 = mul nsw i32 4, %40
  %42 = add nsw i32 %41, 2
  %43 = sext i32 %42 to i64
  %44 = getelementptr inbounds i8, ptr %39, i64 %43
  %45 = load i8, ptr %44, align 1, !tbaa !13
  %46 = load ptr, ptr %7, align 8, !tbaa !4
  %47 = load i32, ptr %8, align 4, !tbaa !9
  %48 = sext i32 %47 to i64
  %49 = getelementptr inbounds i8, ptr %46, i64 %48
  store i8 %45, ptr %49, align 1, !tbaa !13
  %50 = load i32, ptr %8, align 4, !tbaa !9
  %51 = add nsw i32 %50, 1
  store i32 %51, ptr %8, align 4, !tbaa !9
  br label %24, !llvm.loop !105

52:                                               ; preds = %24
  ret void
}

; Function Attrs: nounwind uwtable
define internal void @extract_even_c(ptr noundef %0, ptr noundef %1, i32 noundef %2) #0 {
  %4 = alloca ptr, align 8
  %5 = alloca ptr, align 8
  %6 = alloca i32, align 4
  store ptr %0, ptr %4, align 8, !tbaa !4
  store ptr %1, ptr %5, align 8, !tbaa !4
  store i32 %2, ptr %6, align 4, !tbaa !9
  %7 = load i32, ptr %6, align 4, !tbaa !9
  %8 = load ptr, ptr %5, align 8, !tbaa !4
  %9 = sext i32 %7 to i64
  %10 = getelementptr inbounds i8, ptr %8, i64 %9
  store ptr %10, ptr %5, align 8, !tbaa !4
  %11 = load i32, ptr %6, align 4, !tbaa !9
  %12 = mul nsw i32 %11, 2
  %13 = load ptr, ptr %4, align 8, !tbaa !4
  %14 = sext i32 %12 to i64
  %15 = getelementptr inbounds i8, ptr %13, i64 %14
  store ptr %15, ptr %4, align 8, !tbaa !4
  %16 = load i32, ptr %6, align 4, !tbaa !9
  %17 = sub nsw i32 0, %16
  store i32 %17, ptr %6, align 4, !tbaa !9
  br label %18

18:                                               ; preds = %21, %3
  %19 = load i32, ptr %6, align 4, !tbaa !9
  %20 = icmp slt i32 %19, 0
  br i1 %20, label %21, label %34

21:                                               ; preds = %18
  %22 = load ptr, ptr %4, align 8, !tbaa !4
  %23 = load i32, ptr %6, align 4, !tbaa !9
  %24 = mul nsw i32 2, %23
  %25 = sext i32 %24 to i64
  %26 = getelementptr inbounds i8, ptr %22, i64 %25
  %27 = load i8, ptr %26, align 1, !tbaa !13
  %28 = load ptr, ptr %5, align 8, !tbaa !4
  %29 = load i32, ptr %6, align 4, !tbaa !9
  %30 = sext i32 %29 to i64
  %31 = getelementptr inbounds i8, ptr %28, i64 %30
  store i8 %27, ptr %31, align 1, !tbaa !13
  %32 = load i32, ptr %6, align 4, !tbaa !9
  %33 = add nsw i32 %32, 1
  store i32 %33, ptr %6, align 4, !tbaa !9
  br label %18, !llvm.loop !103

34:                                               ; preds = %18
  ret void
}

; Function Attrs: nounwind uwtable
define internal void @uyvytoyuv422_c(ptr noundef %0, ptr noundef %1, ptr noundef %2, ptr noundef %3, i32 noundef %4, i32 noundef %5, i32 noundef %6, i32 noundef %7, i32 noundef %8) #0 {
  %10 = alloca ptr, align 8
  %11 = alloca ptr, align 8
  %12 = alloca ptr, align 8
  %13 = alloca ptr, align 8
  %14 = alloca i32, align 4
  %15 = alloca i32, align 4
  %16 = alloca i32, align 4
  %17 = alloca i32, align 4
  %18 = alloca i32, align 4
  %19 = alloca i32, align 4
  %20 = alloca i32, align 4
  store ptr %0, ptr %10, align 8, !tbaa !4
  store ptr %1, ptr %11, align 8, !tbaa !4
  store ptr %2, ptr %12, align 8, !tbaa !4
  store ptr %3, ptr %13, align 8, !tbaa !4
  store i32 %4, ptr %14, align 4, !tbaa !9
  store i32 %5, ptr %15, align 4, !tbaa !9
  store i32 %6, ptr %16, align 4, !tbaa !9
  store i32 %7, ptr %17, align 4, !tbaa !9
  store i32 %8, ptr %18, align 4, !tbaa !9
  call void @llvm.lifetime.start.p0(i64 4, ptr %19) #5
  call void @llvm.lifetime.start.p0(i64 4, ptr %20) #5
  %21 = load i32, ptr %14, align 4, !tbaa !9
  %22 = add nsw i32 %21, 2
  %23 = sub nsw i32 %22, 1
  %24 = ashr i32 %23, 1
  store i32 %24, ptr %20, align 4, !tbaa !9
  store i32 0, ptr %19, align 4, !tbaa !9
  br label %25

25:                                               ; preds = %54, %9
  %26 = load i32, ptr %19, align 4, !tbaa !9
  %27 = load i32, ptr %15, align 4, !tbaa !9
  %28 = icmp slt i32 %26, %27
  br i1 %28, label %29, label %57

29:                                               ; preds = %25
  %30 = load ptr, ptr %13, align 8, !tbaa !4
  %31 = getelementptr inbounds i8, ptr %30, i64 1
  %32 = load ptr, ptr %10, align 8, !tbaa !4
  %33 = load i32, ptr %14, align 4, !tbaa !9
  call void @extract_even_c(ptr noundef %31, ptr noundef %32, i32 noundef %33)
  %34 = load ptr, ptr %13, align 8, !tbaa !4
  %35 = load ptr, ptr %11, align 8, !tbaa !4
  %36 = load ptr, ptr %12, align 8, !tbaa !4
  %37 = load i32, ptr %20, align 4, !tbaa !9
  call void @extract_even2_c(ptr noundef %34, ptr noundef %35, ptr noundef %36, i32 noundef %37)
  %38 = load i32, ptr %18, align 4, !tbaa !9
  %39 = load ptr, ptr %13, align 8, !tbaa !4
  %40 = sext i32 %38 to i64
  %41 = getelementptr inbounds i8, ptr %39, i64 %40
  store ptr %41, ptr %13, align 8, !tbaa !4
  %42 = load i32, ptr %16, align 4, !tbaa !9
  %43 = load ptr, ptr %10, align 8, !tbaa !4
  %44 = sext i32 %42 to i64
  %45 = getelementptr inbounds i8, ptr %43, i64 %44
  store ptr %45, ptr %10, align 8, !tbaa !4
  %46 = load i32, ptr %17, align 4, !tbaa !9
  %47 = load ptr, ptr %11, align 8, !tbaa !4
  %48 = sext i32 %46 to i64
  %49 = getelementptr inbounds i8, ptr %47, i64 %48
  store ptr %49, ptr %11, align 8, !tbaa !4
  %50 = load i32, ptr %17, align 4, !tbaa !9
  %51 = load ptr, ptr %12, align 8, !tbaa !4
  %52 = sext i32 %50 to i64
  %53 = getelementptr inbounds i8, ptr %51, i64 %52
  store ptr %53, ptr %12, align 8, !tbaa !4
  br label %54

54:                                               ; preds = %29
  %55 = load i32, ptr %19, align 4, !tbaa !9
  %56 = add nsw i32 %55, 1
  store i32 %56, ptr %19, align 4, !tbaa !9
  br label %25, !llvm.loop !96

57:                                               ; preds = %25
  call void @llvm.lifetime.end.p0(i64 4, ptr %20) #5
  call void @llvm.lifetime.end.p0(i64 4, ptr %19) #5
  ret void
}