; Function Attrs: nofree norecurse nosync nounwind memory(argmem: readwrite) uwtable
define internal void @uyvytoyuv422_c(ptr noundef writeonly captures(none) %0, ptr noundef writeonly captures(none) %1, ptr noundef writeonly captures(none) %2, ptr noundef readonly captures(none) %3, i32 noundef %4, i32 noundef %5, i32 noundef %6, i32 noundef %7, i32 noundef %8) #0 {
  %10 = icmp sgt i32 %5, 0
  br i1 %10, label %.lr.ph, label %._crit_edge

.lr.ph:                                           ; preds = %9
  %11 = add nsw i32 %4, 1
  %12 = ashr i32 %11, 1
  %13 = sext i32 %4 to i64
  %14 = shl nsw i32 %4, 1
  %15 = sext i32 %14 to i64
  %16 = icmp sgt i32 %4, 0
  %17 = sub nsw i32 0, %4
  %18 = sext i32 %17 to i64
  %19 = sext i32 %12 to i64
  %20 = shl nsw i32 %12, 2
  %21 = sext i32 %20 to i64
  %22 = icmp sgt i32 %12, 0
  %23 = sub nsw i32 0, %12
  %24 = sext i32 %23 to i64
  %25 = sext i32 %8 to i64
  %26 = sext i32 %6 to i64
  %27 = sext i32 %7 to i64
  br i1 %22, label %.lr.ph.split.us, label %.lr.ph.split

.lr.ph.split.us:                                  ; preds = %.lr.ph
  br i1 %16, label %.lr.ph.preheader.i.us.us, label %extract_even_c.exit.us

.lr.ph.preheader.i.us.us:                         ; preds = %.lr.ph.split.us, %extract_even2_c.exit.loopexit.us.us
  %.031.us.us = phi ptr [ %44, %extract_even2_c.exit.loopexit.us.us ], [ %0, %.lr.ph.split.us ]
  %.01830.us.us = phi i32 [ %47, %extract_even2_c.exit.loopexit.us.us ], [ 0, %.lr.ph.split.us ]
  %.01929.us.us = phi ptr [ %45, %extract_even2_c.exit.loopexit.us.us ], [ %1, %.lr.ph.split.us ]
  %.02028.us.us = phi ptr [ %46, %extract_even2_c.exit.loopexit.us.us ], [ %2, %.lr.ph.split.us ]
  %.02127.us.us = phi ptr [ %43, %extract_even2_c.exit.loopexit.us.us ], [ %3, %.lr.ph.split.us ]
  %28 = getelementptr inbounds nuw i8, ptr %.02127.us.us, i64 1
  %29 = getelementptr inbounds nuw i8, ptr %.031.us.us, i64 %13
  %30 = getelementptr inbounds nuw i8, ptr %28, i64 %15
  br label %.lr.ph.i.us.us

.lr.ph.i.us.us:                                   ; preds = %.lr.ph.i.us.us, %.lr.ph.preheader.i.us.us
  %indvars.iv.i.us.us = phi i64 [ %18, %.lr.ph.preheader.i.us.us ], [ %indvars.iv.next.i.us.us, %.lr.ph.i.us.us ]
  %31 = shl nsw i64 %indvars.iv.i.us.us, 1
  %32 = getelementptr inbounds i8, ptr %30, i64 %31
  %33 = load i8, ptr %32, align 1, !tbaa !8
  %34 = getelementptr inbounds i8, ptr %29, i64 %indvars.iv.i.us.us
  store i8 %33, ptr %34, align 1, !tbaa !8
  %indvars.iv.next.i.us.us = add nsw i64 %indvars.iv.i.us.us, 1
  %35 = and i64 %indvars.iv.next.i.us.us, 4294967295
  %exitcond.not.i.us.us = icmp eq i64 %35, 0
  br i1 %exitcond.not.i.us.us, label %extract_even_c.exit.loopexit.us.us, label %.lr.ph.i.us.us, !llvm.loop !93

.lr.ph.i23.us.us:                                 ; preds = %.lr.ph.i23.us.us, %extract_even_c.exit.loopexit.us.us
  %indvars.iv.i24.us.us = phi i64 [ %24, %extract_even_c.exit.loopexit.us.us ], [ %indvars.iv.next.i25.us.us, %.lr.ph.i23.us.us ]
  %36 = shl nsw i64 %indvars.iv.i24.us.us, 2
  %37 = getelementptr inbounds i8, ptr %50, i64 %36
  %38 = load i8, ptr %37, align 1, !tbaa !8
  %39 = getelementptr inbounds i8, ptr %48, i64 %indvars.iv.i24.us.us
  store i8 %38, ptr %39, align 1, !tbaa !8
  %40 = getelementptr i8, ptr %37, i64 2
  %41 = load i8, ptr %40, align 1, !tbaa !8
  %42 = getelementptr inbounds i8, ptr %49, i64 %indvars.iv.i24.us.us
  store i8 %41, ptr %42, align 1, !tbaa !8
  %indvars.iv.next.i25.us.us = add nsw i64 %indvars.iv.i24.us.us, 1
  %exitcond.not.i26.us.us = icmp eq i64 %indvars.iv.next.i25.us.us, 0
  br i1 %exitcond.not.i26.us.us, label %extract_even2_c.exit.loopexit.us.us, label %.lr.ph.i23.us.us, !llvm.loop !96

extract_even2_c.exit.loopexit.us.us:              ; preds = %.lr.ph.i23.us.us
  %43 = getelementptr inbounds i8, ptr %.02127.us.us, i64 %25
  %44 = getelementptr inbounds i8, ptr %.031.us.us, i64 %26
  %45 = getelementptr inbounds i8, ptr %.01929.us.us, i64 %27
  %46 = getelementptr inbounds i8, ptr %.02028.us.us, i64 %27
  %47 = add nuw nsw i32 %.01830.us.us, 1
  %exitcond48.not = icmp eq i32 %47, %5
  br i1 %exitcond48.not, label %._crit_edge, label %.lr.ph.preheader.i.us.us, !llvm.loop !97

extract_even_c.exit.loopexit.us.us:               ; preds = %.lr.ph.i.us.us
  %48 = getelementptr inbounds nuw i8, ptr %.01929.us.us, i64 %19
  %49 = getelementptr inbounds nuw i8, ptr %.02028.us.us, i64 %19
  %50 = getelementptr inbounds nuw i8, ptr %.02127.us.us, i64 %21
  br label %.lr.ph.i23.us.us

extract_even_c.exit.us:                           ; preds = %.lr.ph.split.us, %extract_even2_c.exit.loopexit.us
  %.01830.us = phi i32 [ %64, %extract_even2_c.exit.loopexit.us ], [ 0, %.lr.ph.split.us ]
  %.01929.us = phi ptr [ %62, %extract_even2_c.exit.loopexit.us ], [ %1, %.lr.ph.split.us ]
  %.02028.us = phi ptr [ %63, %extract_even2_c.exit.loopexit.us ], [ %2, %.lr.ph.split.us ]
  %.02127.us = phi ptr [ %61, %extract_even2_c.exit.loopexit.us ], [ %3, %.lr.ph.split.us ]
  %51 = getelementptr inbounds nuw i8, ptr %.01929.us, i64 %19
  %52 = getelementptr inbounds nuw i8, ptr %.02028.us, i64 %19
  %53 = getelementptr inbounds nuw i8, ptr %.02127.us, i64 %21
  br label %.lr.ph.i23.us

.lr.ph.i23.us:                                    ; preds = %.lr.ph.i23.us, %extract_even_c.exit.us
  %indvars.iv.i24.us = phi i64 [ %24, %extract_even_c.exit.us ], [ %indvars.iv.next.i25.us, %.lr.ph.i23.us ]
  %54 = shl nsw i64 %indvars.iv.i24.us, 2
  %55 = getelementptr inbounds i8, ptr %53, i64 %54
  %56 = load i8, ptr %55, align 1, !tbaa !8
  %57 = getelementptr inbounds i8, ptr %51, i64 %indvars.iv.i24.us
  store i8 %56, ptr %57, align 1, !tbaa !8
  %58 = getelementptr i8, ptr %55, i64 2
  %59 = load i8, ptr %58, align 1, !tbaa !8
  %60 = getelementptr inbounds i8, ptr %52, i64 %indvars.iv.i24.us
  store i8 %59, ptr %60, align 1, !tbaa !8
  %indvars.iv.next.i25.us = add nsw i64 %indvars.iv.i24.us, 1
  %exitcond.not.i26.us = icmp eq i64 %indvars.iv.next.i25.us, 0
  br i1 %exitcond.not.i26.us, label %extract_even2_c.exit.loopexit.us, label %.lr.ph.i23.us, !llvm.loop !96

extract_even2_c.exit.loopexit.us:                 ; preds = %.lr.ph.i23.us
  %61 = getelementptr inbounds i8, ptr %.02127.us, i64 %25
  %62 = getelementptr inbounds i8, ptr %.01929.us, i64 %27
  %63 = getelementptr inbounds i8, ptr %.02028.us, i64 %27
  %64 = add nuw nsw i32 %.01830.us, 1
  %exitcond47.not = icmp eq i32 %64, %5
  br i1 %exitcond47.not, label %._crit_edge, label %extract_even_c.exit.us, !llvm.loop !97

.lr.ph.split:                                     ; preds = %.lr.ph
  br i1 %16, label %.lr.ph.preheader.i.us37, label %._crit_edge

.lr.ph.preheader.i.us37:                          ; preds = %.lr.ph.split, %extract_even_c.exit.loopexit.us43
  %.031.us32 = phi ptr [ %74, %extract_even_c.exit.loopexit.us43 ], [ %0, %.lr.ph.split ]
  %.01830.us33 = phi i32 [ %75, %extract_even_c.exit.loopexit.us43 ], [ 0, %.lr.ph.split ]
  %.02127.us36 = phi ptr [ %73, %extract_even_c.exit.loopexit.us43 ], [ %3, %.lr.ph.split ]
  %65 = getelementptr inbounds nuw i8, ptr %.02127.us36, i64 1
  %66 = getelementptr inbounds nuw i8, ptr %.031.us32, i64 %13
  %67 = getelementptr inbounds nuw i8, ptr %65, i64 %15
  br label %.lr.ph.i.us38

.lr.ph.i.us38:                                    ; preds = %.lr.ph.i.us38, %.lr.ph.preheader.i.us37
  %indvars.iv.i.us39 = phi i64 [ %18, %.lr.ph.preheader.i.us37 ], [ %indvars.iv.next.i.us40, %.lr.ph.i.us38 ]
  %68 = shl nsw i64 %indvars.iv.i.us39, 1
  %69 = getelementptr inbounds i8, ptr %67, i64 %68
  %70 = load i8, ptr %69, align 1, !tbaa !8
  %71 = getelementptr inbounds i8, ptr %66, i64 %indvars.iv.i.us39
  store i8 %70, ptr %71, align 1, !tbaa !8
  %indvars.iv.next.i.us40 = add nsw i64 %indvars.iv.i.us39, 1
  %72 = and i64 %indvars.iv.next.i.us40, 4294967295
  %exitcond.not.i.us41 = icmp eq i64 %72, 0
  br i1 %exitcond.not.i.us41, label %extract_even_c.exit.loopexit.us43, label %.lr.ph.i.us38, !llvm.loop !93

extract_even_c.exit.loopexit.us43:                ; preds = %.lr.ph.i.us38
  %73 = getelementptr inbounds i8, ptr %.02127.us36, i64 %25
  %74 = getelementptr inbounds i8, ptr %.031.us32, i64 %26
  %75 = add nuw nsw i32 %.01830.us33, 1
  %exitcond.not = icmp eq i32 %75, %5
  br i1 %exitcond.not, label %._crit_edge, label %.lr.ph.preheader.i.us37, !llvm.loop !97

._crit_edge:                                      ; preds = %extract_even_c.exit.loopexit.us43, %extract_even2_c.exit.loopexit.us, %extract_even2_c.exit.loopexit.us.us, %.lr.ph.split, %9
  ret void
}